; Function Attrs: mustprogress nofree norecurse nosync nounwind willreturn memory(readwrite, inaccessiblemem: none) uwtable
define hidden range(i64 -2147483648, 2147483648) i64 @SSL_get_peer_finished(ptr noundef readonly captures(none) %0, ptr noundef writeonly captures(none) %1, i64 noundef %2) local_unnamed_addr #12 {
  %4 = getelementptr inbounds nuw i8, ptr %0, i64 80
  %5 = load ptr, ptr %4, align 8, !tbaa !136
  %.not = icmp eq ptr %5, null
  br i1 %.not, label %11, label %6

6:                                                ; preds = %3
  %7 = getelementptr inbounds nuw i8, ptr %5, i64 420
  %8 = load i32, ptr %7, align 4, !tbaa !163
  %9 = sext i32 %8 to i64
  %spec.select = tail call i64 @llvm.umin.i64(i64 %2, i64 %9)
  %10 = getelementptr inbounds nuw i8, ptr %5, i64 356
  tail call void @llvm.memcpy.p0.p0.i64(ptr align 1 %1, ptr nonnull align 4 %10, i64 %spec.select, i1 false)
  br label %11

11:                                               ; preds = %6, %3
  %.0 = phi i64 [ %9, %6 ], [ 0, %3 ]
  ret i64 %.0
}